; Function Attrs: nounwind uwtable
define dso_local noundef ptr @data_list_append(ptr noundef %0) local_unnamed_addr #0 {
  %.not = icmp eq ptr %0, null
  br i1 %.not, label %25, label %2

2:                                                ; preds = %1
  %3 = getelementptr inbounds nuw i8, ptr %0, i64 4
  %4 = load i32, ptr %3, align 4
  %.not11 = icmp eq i32 %4, 65282
  br i1 %.not11, label %5, label %25

5:                                                ; preds = %2
  %6 = tail call ptr @slurm_xcalloc(i64 noundef 1, i64 noundef 16, i1 noundef zeroext true, i1 noundef zeroext false, ptr noundef nonnull @.str, i32 noundef 389, ptr noundef nonnull @__func__.data_new) #16
  store i32 429004959, ptr %6, align 8
  %7 = getelementptr inbounds nuw i8, ptr %6, i64 4
  store i32 65281, ptr %7, align 4
  %8 = load i64, ptr getelementptr inbounds nuw (i8, ptr @slurm_conf, i64 320), align 8
  %9 = and i64 %8, 256
  %.not.i = icmp eq i64 %9, 0
  br i1 %.not.i, label %data_new.exit, label %10

10:                                               ; preds = %5
  %11 = tail call i32 @get_log_level() #16
  %12 = icmp sgt i32 %11, 3
  br i1 %12, label %13, label %data_new.exit

13:                                               ; preds = %10
  tail call void (i32, ptr, ...) @log_var(i32 noundef 4, ptr noundef nonnull @.str.1, ptr noundef nonnull @__func__.data_new, ptr noundef nonnull %6) #16
  br label %data_new.exit

data_new.exit:                                    ; preds = %5, %10, %13
  %14 = getelementptr inbounds nuw i8, ptr %0, i64 8
  %15 = load ptr, ptr %14, align 8
  tail call fastcc void @_data_list_append(ptr noundef %15, ptr noundef nonnull %6, ptr noundef null)
  %16 = load i64, ptr getelementptr inbounds nuw (i8, ptr @slurm_conf, i64 320), align 8
  %17 = and i64 %16, 256
  %.not12 = icmp eq i64 %17, 0
  br i1 %.not12, label %25, label %18

18:                                               ; preds = %data_new.exit
  %19 = tail call i32 @get_log_level() #16
  %20 = icmp sgt i32 %19, 3
  br i1 %20, label %21, label %25

21:                                               ; preds = %18
  %22 = load ptr, ptr %14, align 8
  %23 = getelementptr inbounds nuw i8, ptr %22, i64 8
  %24 = load i64, ptr %23, align 8
  tail call void (i32, ptr, ...) @log_var(i32 noundef 4, ptr noundef nonnull @.str.11, ptr noundef nonnull @__func__.data_list_append, ptr noundef nonnull %0, i64 noundef %24, ptr noundef nonnull %6) #16
  br label %25

25:                                               ; preds = %data_new.exit, %21, %18, %1, %2
  %.0 = phi ptr [ null, %2 ], [ null, %1 ], [ %6, %18 ], [ %6, %21 ], [ %6, %data_new.exit ]
  ret ptr %.0
}